target datalayout = "e-m:e-p270:32:32-p271:32:32-p272:64:64-i64:64-i128:128-f80:128-n8:16:32:64-S128"
target triple = "x86_64-pc-linux-gnu"

@.str.3 = private unnamed_addr constant [3 x i8] c"00\00", align 1

; Function Attrs: nounwind uwtable
define internal i32 @t_fromb64(ptr noundef %0, i64 noundef %1, ptr noundef %2) #0 {
  %4 = alloca i32, align 4
  %5 = alloca ptr, align 8
  %6 = alloca i64, align 8
  %7 = alloca ptr, align 8
  %8 = alloca ptr, align 8
  %9 = alloca i32, align 4
  %10 = alloca i32, align 4
  %11 = alloca i64, align 8
  %12 = alloca i64, align 8
  %13 = alloca ptr, align 8
  %14 = alloca i32, align 4
  store ptr %0, ptr %5, align 8, !tbaa !18
  store i64 %1, ptr %6, align 8, !tbaa !71
  store ptr %2, ptr %7, align 8, !tbaa !18
  call void @llvm.lifetime.start.p0(i64 8, ptr %8) #7
  call void @llvm.lifetime.start.p0(i64 4, ptr %9) #7
  store i32 0, ptr %9, align 4, !tbaa !32
  call void @llvm.lifetime.start.p0(i64 4, ptr %10) #7
  store i32 0, ptr %10, align 4, !tbaa !32
  call void @llvm.lifetime.start.p0(i64 8, ptr %11) #7
  call void @llvm.lifetime.start.p0(i64 8, ptr %12) #7
  call void @llvm.lifetime.start.p0(i64 8, ptr %13) #7
  store ptr @.str.3, ptr %13, align 8, !tbaa !18
  br label %15

15:                                               ; preds = %32, %3
  %16 = load ptr, ptr %7, align 8, !tbaa !18
  %17 = load i8, ptr %16, align 1, !tbaa !51
  %18 = sext i8 %17 to i32
  %19 = icmp eq i32 %18, 32
  br i1 %19, label %30, label %20

20:                                               ; preds = %15
  %21 = load ptr, ptr %7, align 8, !tbaa !18
  %22 = load i8, ptr %21, align 1, !tbaa !51
  %23 = sext i8 %22 to i32
  %24 = icmp eq i32 %23, 9
  br i1 %24, label %30, label %25

25:                                               ; preds = %20
  %26 = load ptr, ptr %7, align 8, !tbaa !18
  %27 = load i8, ptr %26, align 1, !tbaa !51
  %28 = sext i8 %27 to i32
  %29 = icmp eq i32 %28, 10
  br label %30

30:                                               ; preds = %25, %20, %15
  %31 = phi i1 [ true, %20 ], [ true, %15 ], [ %29, %25 ]
  br i1 %31, label %32, label %35

32:                                               ; preds = %30
  %33 = load ptr, ptr %7, align 8, !tbaa !18
  %34 = getelementptr inbounds nuw i8, ptr %33, i32 1
  store ptr %34, ptr %7, align 8, !tbaa !18
  br label %15, !llvm.loop !72

35:                                               ; preds = %30
  %36 = load ptr, ptr %7, align 8, !tbaa !18
  %37 = call i64 @strlen(ptr noundef %36) #8
  store i64 %37, ptr %11, align 8, !tbaa !71
  %38 = load i64, ptr %11, align 8, !tbaa !71
  %39 = and i64 %38, 3
  %40 = sub i64 4, %39
  store i64 %40, ptr %12, align 8, !tbaa !71
  %41 = load i64, ptr %12, align 8, !tbaa !71
  %42 = and i64 %41, 3
  store i64 %42, ptr %12, align 8, !tbaa !71
  %43 = load i64, ptr %11, align 8, !tbaa !71
  %44 = icmp ugt i64 %43, 2147483647
  br i1 %44, label %53, label %45

45:                                               ; preds = %35
  %46 = load i64, ptr %11, align 8, !tbaa !71
  %47 = load i64, ptr %12, align 8, !tbaa !71
  %48 = add i64 %46, %47
  %49 = udiv i64 %48, 4
  %50 = mul i64 %49, 3
  %51 = load i64, ptr %6, align 8, !tbaa !71
  %52 = icmp ugt i64 %50, %51
  br i1 %52, label %53, label %54

53:                                               ; preds = %45, %35
  store i32 -1, ptr %4, align 4
  store i32 1, ptr %14, align 4
  br label %125

54:                                               ; preds = %45
  %55 = call ptr @EVP_ENCODE_CTX_new()
  store ptr %55, ptr %8, align 8, !tbaa !73
  %56 = load ptr, ptr %8, align 8, !tbaa !73
  %57 = icmp eq ptr %56, null
  br i1 %57, label %58, label %59

58:                                               ; preds = %54
  store i32 -1, ptr %4, align 4
  store i32 1, ptr %14, align 4
  br label %125

59:                                               ; preds = %54
  %60 = load i64, ptr %12, align 8, !tbaa !71
  %61 = icmp eq i64 %60, 3
  br i1 %61, label %62, label %63

62:                                               ; preds = %59
  store i32 -1, ptr %9, align 4, !tbaa !32
  br label %122

63:                                               ; preds = %59
  %64 = load ptr, ptr %8, align 8, !tbaa !73
  call void @EVP_DecodeInit(ptr noundef %64)
  %65 = load ptr, ptr %8, align 8, !tbaa !73
  call void @evp_encode_ctx_set_flags(ptr noundef %65, i32 noundef 2)
  %66 = load i64, ptr %12, align 8, !tbaa !71
  %67 = icmp ne i64 %66, 0
  br i1 %67, label %68, label %77

68:                                               ; preds = %63
  %69 = load ptr, ptr %8, align 8, !tbaa !73
  %70 = load ptr, ptr %5, align 8, !tbaa !18
  %71 = load ptr, ptr %13, align 8, !tbaa !18
  %72 = load i64, ptr %12, align 8, !tbaa !71
  %73 = trunc i64 %72 to i32
  %74 = call i32 @EVP_DecodeUpdate(ptr noundef %69, ptr noundef %70, ptr noundef %9, ptr noundef %71, i32 noundef %73)
  %75 = icmp slt i32 %74, 0
  br i1 %75, label %76, label %77

76:                                               ; preds = %68
  store i32 -1, ptr %9, align 4, !tbaa !32
  br label %122

77:                                               ; preds = %68, %63
  %78 = load ptr, ptr %8, align 8, !tbaa !73
  %79 = load ptr, ptr %5, align 8, !tbaa !18
  %80 = load ptr, ptr %7, align 8, !tbaa !18
  %81 = load i64, ptr %11, align 8, !tbaa !71
  %82 = trunc i64 %81 to i32
  %83 = call i32 @EVP_DecodeUpdate(ptr noundef %78, ptr noundef %79, ptr noundef %10, ptr noundef %80, i32 noundef %82)
  %84 = icmp slt i32 %83, 0
  br i1 %84, label %85, label %86

85:                                               ; preds = %77
  store i32 -1, ptr %9, align 4, !tbaa !32
  br label %122

86:                                               ; preds = %77
  %87 = load i32, ptr %10, align 4, !tbaa !32
  %88 = load i32, ptr %9, align 4, !tbaa !32
  %89 = add nsw i32 %88, %87
  store i32 %89, ptr %9, align 4, !tbaa !32
  %90 = load ptr, ptr %8, align 8, !tbaa !73
  %91 = load ptr, ptr %5, align 8, !tbaa !18
  %92 = load i32, ptr %9, align 4, !tbaa !32
  %93 = sext i32 %92 to i64
  %94 = getelementptr inbounds i8, ptr %91, i64 %93
  %95 = call i32 @EVP_DecodeFinal(ptr noundef %90, ptr noundef %94, ptr noundef %10)
  %96 = load i32, ptr %10, align 4, !tbaa !32
  %97 = load i32, ptr %9, align 4, !tbaa !32
  %98 = add nsw i32 %97, %96
  store i32 %98, ptr %9, align 4, !tbaa !32
  %99 = load i64, ptr %12, align 8, !tbaa !71
  %100 = icmp ne i64 %99, 0
  br i1 %100, label %101, label %121

101:                                              ; preds = %86
  %102 = load i64, ptr %12, align 8, !tbaa !71
  %103 = trunc i64 %102 to i32
  %104 = load i32, ptr %9, align 4, !tbaa !32
  %105 = icmp sge i32 %103, %104
  br i1 %105, label %106, label %107

106:                                              ; preds = %101
  store i32 -1, ptr %9, align 4, !tbaa !32
  br label %122

107:                                              ; preds = %101
  %108 = load ptr, ptr %5, align 8, !tbaa !18
  %109 = load ptr, ptr %5, align 8, !tbaa !18
  %110 = load i64, ptr %12, align 8, !tbaa !71
  %111 = getelementptr inbounds nuw i8, ptr %109, i64 %110
  %112 = load i32, ptr %9, align 4, !tbaa !32
  %113 = sext i32 %112 to i64
  %114 = load i64, ptr %12, align 8, !tbaa !71
  %115 = sub i64 %113, %114
  call void @llvm.memmove.p0.p0.i64(ptr align 1 %108, ptr align 1 %111, i64 %115, i1 false)
  %116 = load i64, ptr %12, align 8, !tbaa !71
  %117 = load i32, ptr %9, align 4, !tbaa !32
  %118 = sext i32 %117 to i64
  %119 = sub i64 %118, %116
  %120 = trunc i64 %119 to i32
  store i32 %120, ptr %9, align 4, !tbaa !32
  br label %121

121:                                              ; preds = %107, %86
  br label %122

122:                                              ; preds = %121, %106, %85, %76, %62
  %123 = load ptr, ptr %8, align 8, !tbaa !73
  call void @EVP_ENCODE_CTX_free(ptr noundef %123)
  %124 = load i32, ptr %9, align 4, !tbaa !32
  store i32 %124, ptr %4, align 4
  store i32 1, ptr %14, align 4
  br label %125

125:                                              ; preds = %122, %58, %53
  call void @llvm.lifetime.end.p0(i64 8, ptr %13) #7
  call void @llvm.lifetime.end.p0(i64 8, ptr %12) #7
  call void @llvm.lifetime.end.p0(i64 8, ptr %11) #7
  call void @llvm.lifetime.end.p0(i64 4, ptr %10) #7
  call void @llvm.lifetime.end.p0(i64 4, ptr %9) #7
  call void @llvm.lifetime.end.p0(i64 8, ptr %8) #7
  %126 = load i32, ptr %4, align 4
  ret i32 %126
}