; Function Attrs: nounwind uwtable
define internal fastcc i32 @t_fromb64(ptr noundef nonnull %0, ptr noundef %1) unnamed_addr #0 {
  %3 = alloca i32, align 4
  %4 = alloca i32, align 4
  call void @llvm.lifetime.start.p0(i64 4, ptr nonnull %3) #7
  store i32 0, ptr %3, align 4, !tbaa !45
  call void @llvm.lifetime.start.p0(i64 4, ptr nonnull %4) #7
  store i32 0, ptr %4, align 4, !tbaa !45
  br label %5

5:                                                ; preds = %.critedge, %2
  %.034 = phi ptr [ %1, %2 ], [ %7, %.critedge ]
  %6 = load i8, ptr %.034, align 1, !tbaa !31
  switch i8 %6, label %8 [
    i8 32, label %.critedge
    i8 9, label %.critedge
    i8 10, label %.critedge
  ]

.critedge:                                        ; preds = %5, %5, %5
  %7 = getelementptr inbounds nuw i8, ptr %.034, i64 1
  br label %5, !llvm.loop !46

8:                                                ; preds = %5
  %9 = tail call i64 @strlen(ptr noundef nonnull dereferenceable(1) %.034) #8
  %10 = sub i64 0, %9
  %11 = and i64 %10, 3
  %12 = icmp ugt i64 %9, 2147483647
  %13 = add nuw nsw i64 %11, %9
  %14 = icmp ugt i64 %13, 3335
  %or.cond = select i1 %12, i1 true, i1 %14
  br i1 %or.cond, label %48, label %15

15:                                               ; preds = %8
  %16 = tail call ptr @EVP_ENCODE_CTX_new() #7
  %17 = icmp eq ptr %16, null
  br i1 %17, label %48, label %18

18:                                               ; preds = %15
  %19 = icmp eq i64 %11, 3
  br i1 %19, label %.sink.split, label %20

20:                                               ; preds = %18
  tail call void @EVP_DecodeInit(ptr noundef nonnull %16) #7
  tail call void @evp_encode_ctx_set_flags(ptr noundef nonnull %16, i32 noundef 2) #7
  %.not = icmp eq i64 %11, 0
  br i1 %.not, label %25, label %21

21:                                               ; preds = %20
  %22 = trunc nuw nsw i64 %11 to i32
  %23 = call i32 @EVP_DecodeUpdate(ptr noundef nonnull %16, ptr noundef nonnull %0, ptr noundef nonnull %3, ptr noundef nonnull @.str.3, i32 noundef %22) #7
  %24 = icmp slt i32 %23, 0
  br i1 %24, label %.sink.split, label %25

25:                                               ; preds = %21, %20
  %26 = trunc nuw nsw i64 %9 to i32
  %27 = call i32 @EVP_DecodeUpdate(ptr noundef nonnull %16, ptr noundef nonnull %0, ptr noundef nonnull %4, ptr noundef nonnull %.034, i32 noundef %26) #7
  %28 = icmp slt i32 %27, 0
  br i1 %28, label %.sink.split, label %29

29:                                               ; preds = %25
  %30 = load i32, ptr %4, align 4, !tbaa !45
  %31 = load i32, ptr %3, align 4, !tbaa !45
  %32 = add nsw i32 %31, %30
  store i32 %32, ptr %3, align 4, !tbaa !45
  %33 = sext i32 %32 to i64
  %34 = getelementptr inbounds i8, ptr %0, i64 %33
  %35 = call i32 @EVP_DecodeFinal(ptr noundef nonnull %16, ptr noundef nonnull %34, ptr noundef nonnull %4) #7
  %36 = load i32, ptr %4, align 4, !tbaa !45
  %37 = load i32, ptr %3, align 4, !tbaa !45
  %38 = add nsw i32 %37, %36
  store i32 %38, ptr %3, align 4, !tbaa !45
  br i1 %.not, label %46, label %39

39:                                               ; preds = %29
  %40 = trunc nuw nsw i64 %11 to i32
  %.not40 = icmp sgt i32 %38, %40
  br i1 %.not40, label %41, label %.sink.split

41:                                               ; preds = %39
  %42 = getelementptr inbounds nuw i8, ptr %0, i64 %11
  %43 = zext nneg i32 %38 to i64
  %44 = sub nuw nsw i64 %43, %11
  call void @llvm.memmove.p0.p0.i64(ptr nonnull align 1 %0, ptr nonnull align 1 %42, i64 %44, i1 false)
  %45 = sub nuw nsw i32 %38, %40
  br label %.sink.split

.sink.split:                                      ; preds = %39, %25, %21, %18, %41
  %.sink = phi i32 [ %45, %41 ], [ -1, %18 ], [ -1, %21 ], [ -1, %25 ], [ -1, %39 ]
  store i32 %.sink, ptr %3, align 4, !tbaa !45
  br label %46

46:                                               ; preds = %.sink.split, %29
  call void @EVP_ENCODE_CTX_free(ptr noundef nonnull %16) #7
  %47 = load i32, ptr %3, align 4, !tbaa !45
  br label %48

48:                                               ; preds = %15, %8, %46
  %.0 = phi i32 [ %47, %46 ], [ -1, %8 ], [ -1, %15 ]
  call void @llvm.lifetime.end.p0(i64 4, ptr nonnull %4) #7
  call void @llvm.lifetime.end.p0(i64 4, ptr nonnull %3) #7
  ret i32 %.0
}